target datalayout = "e-m:e-p270:32:32-p271:32:32-p272:64:64-i64:64-i128:128-f80:128-n8:16:32:64-S128"
target triple = "x86_64-pc-linux-gnu"

@.str = private unnamed_addr constant [153 x i8] c"generated/home/dtcxzyw/WorkSpace/Projects/compilers/llvm-opt-benchmark/bench/open3d/Open3D/cpp/open3d/visualization/visualizer/VisualizerWithEditing.cpp\00", align 1
@.str.40 = private unnamed_addr constant [1 x i8] zeroinitializer, align 1
@__PRETTY_FUNCTION__._ZN6open3d13visualization21VisualizerWithEditing19PrintVisualizerHelpEv = private unnamed_addr constant [81 x i8] c"virtual void open3d::visualization::VisualizerWithEditing::PrintVisualizerHelp()\00", align 1
@.str.66 = private unnamed_addr constant [24 x i8] c"  -- Editing control --\00", align 1
@.str.67 = private unnamed_addr constant [40 x i8] c"    F            : Enter freeview mode.\00", align 1
@.str.68 = private unnamed_addr constant [76 x i8] c"    X            : Enter orthogonal view along X axis, press again to flip.\00", align 1
@.str.69 = private unnamed_addr constant [76 x i8] c"    Y            : Enter orthogonal view along Y axis, press again to flip.\00", align 1
@.str.70 = private unnamed_addr constant [76 x i8] c"    Z            : Enter orthogonal view along Z axis, press again to flip.\00", align 1
@.str.71 = private unnamed_addr constant [41 x i8] c"    K            : Lock / unlock camera.\00", align 1
@.str.72 = private unnamed_addr constant [61 x i8] c"    Ctrl + D     : Downsample point cloud with a voxel grid.\00", align 1
@.str.73 = private unnamed_addr constant [56 x i8] c"    Ctrl + R     : Reset geometry to its initial state.\00", align 1
@.str.74 = private unnamed_addr constant [57 x i8] c"    Shift + +/-  : Increase/decrease picked point size..\00", align 1
@.str.75 = private unnamed_addr constant [65 x i8] c"    Shift + mouse left button   : Pick a point and add in queue.\00", align 1
@.str.76 = private unnamed_addr constant [71 x i8] c"    Shift + mouse right button  : Remove last picked point from queue.\00", align 1
@.str.77 = private unnamed_addr constant [32 x i8] c"    -- When camera is locked --\00", align 1
@.str.78 = private unnamed_addr constant [64 x i8] c"    Mouse left button + drag    : Create a selection rectangle.\00", align 1
@.str.79 = private unnamed_addr constant [77 x i8] c"    Ctrl + mouse buttons + drag : Hold Ctrl key to draw a selection polygon.\00", align 1
@.str.80 = private unnamed_addr constant [78 x i8] c"                                  Left mouse button to add point. Right mouse\00", align 1
@.str.81 = private unnamed_addr constant [78 x i8] c"                                  button to remove point. Release Ctrl key to\00", align 1
@.str.82 = private unnamed_addr constant [53 x i8] c"                                  close the polygon.\00", align 1
@.str.83 = private unnamed_addr constant [75 x i8] c"    C                           : Crop the geometry with selection region.\00", align 1

; Function Attrs: mustprogress ssp uwtable
define void @_ZN6open3d13visualization21VisualizerWithEditing19PrintVisualizerHelpEv(ptr noundef nonnull align 8 dereferenceable(628) %0) unnamed_addr #1 align 2 {
  %2 = alloca ptr, align 8
  store ptr %0, ptr %2, align 8, !tbaa !4
  %3 = load ptr, ptr %2, align 8
  call void @_ZN6open3d13visualization10Visualizer19PrintVisualizerHelpEv(ptr noundef nonnull align 8 dereferenceable(456) %3)
  call void @_ZN6open3d7utility6Logger8LogInfo_IJEEEvPKciS4_S4_DpOT_(ptr noundef @.str, i32 noundef 110, ptr noundef @__PRETTY_FUNCTION__._ZN6open3d13visualization21VisualizerWithEditing19PrintVisualizerHelpEv, ptr noundef @.str.66)
  call void @_ZN6open3d7utility6Logger8LogInfo_IJEEEvPKciS4_S4_DpOT_(ptr noundef @.str, i32 noundef 111, ptr noundef @__PRETTY_FUNCTION__._ZN6open3d13visualization21VisualizerWithEditing19PrintVisualizerHelpEv, ptr noundef @.str.67)
  call void @_ZN6open3d7utility6Logger8LogInfo_IJEEEvPKciS4_S4_DpOT_(ptr noundef @.str, i32 noundef 112, ptr noundef @__PRETTY_FUNCTION__._ZN6open3d13visualization21VisualizerWithEditing19PrintVisualizerHelpEv, ptr noundef @.str.68)
  call void @_ZN6open3d7utility6Logger8LogInfo_IJEEEvPKciS4_S4_DpOT_(ptr noundef @.str, i32 noundef 113, ptr noundef @__PRETTY_FUNCTION__._ZN6open3d13visualization21VisualizerWithEditing19PrintVisualizerHelpEv, ptr noundef @.str.69)
  call void @_ZN6open3d7utility6Logger8LogInfo_IJEEEvPKciS4_S4_DpOT_(ptr noundef @.str, i32 noundef 114, ptr noundef @__PRETTY_FUNCTION__._ZN6open3d13visualization21VisualizerWithEditing19PrintVisualizerHelpEv, ptr noundef @.str.70)
  call void @_ZN6open3d7utility6Logger8LogInfo_IJEEEvPKciS4_S4_DpOT_(ptr noundef @.str, i32 noundef 115, ptr noundef @__PRETTY_FUNCTION__._ZN6open3d13visualization21VisualizerWithEditing19PrintVisualizerHelpEv, ptr noundef @.str.71)
  call void @_ZN6open3d7utility6Logger8LogInfo_IJEEEvPKciS4_S4_DpOT_(ptr noundef @.str, i32 noundef 116, ptr noundef @__PRETTY_FUNCTION__._ZN6open3d13visualization21VisualizerWithEditing19PrintVisualizerHelpEv, ptr noundef @.str.72)
  call void @_ZN6open3d7utility6Logger8LogInfo_IJEEEvPKciS4_S4_DpOT_(ptr noundef @.str, i32 noundef 117, ptr noundef @__PRETTY_FUNCTION__._ZN6open3d13visualization21VisualizerWithEditing19PrintVisualizerHelpEv, ptr noundef @.str.73)
  call void @_ZN6open3d7utility6Logger8LogInfo_IJEEEvPKciS4_S4_DpOT_(ptr noundef @.str, i32 noundef 118, ptr noundef @__PRETTY_FUNCTION__._ZN6open3d13visualization21VisualizerWithEditing19PrintVisualizerHelpEv, ptr noundef @.str.74)
  call void @_ZN6open3d7utility6Logger8LogInfo_IJEEEvPKciS4_S4_DpOT_(ptr noundef @.str, i32 noundef 119, ptr noundef @__PRETTY_FUNCTION__._ZN6open3d13visualization21VisualizerWithEditing19PrintVisualizerHelpEv, ptr noundef @.str.75)
  call void @_ZN6open3d7utility6Logger8LogInfo_IJEEEvPKciS4_S4_DpOT_(ptr noundef @.str, i32 noundef 120, ptr noundef @__PRETTY_FUNCTION__._ZN6open3d13visualization21VisualizerWithEditing19PrintVisualizerHelpEv, ptr noundef @.str.76)
  call void @_ZN6open3d7utility6Logger8LogInfo_IJEEEvPKciS4_S4_DpOT_(ptr noundef @.str, i32 noundef 121, ptr noundef @__PRETTY_FUNCTION__._ZN6open3d13visualization21VisualizerWithEditing19PrintVisualizerHelpEv, ptr noundef @.str.40)
  call void @_ZN6open3d7utility6Logger8LogInfo_IJEEEvPKciS4_S4_DpOT_(ptr noundef @.str, i32 noundef 122, ptr noundef @__PRETTY_FUNCTION__._ZN6open3d13visualization21VisualizerWithEditing19PrintVisualizerHelpEv, ptr noundef @.str.77)
  call void @_ZN6open3d7utility6Logger8LogInfo_IJEEEvPKciS4_S4_DpOT_(ptr noundef @.str, i32 noundef 123, ptr noundef @__PRETTY_FUNCTION__._ZN6open3d13visualization21VisualizerWithEditing19PrintVisualizerHelpEv, ptr noundef @.str.78)
  call void @_ZN6open3d7utility6Logger8LogInfo_IJEEEvPKciS4_S4_DpOT_(ptr noundef @.str, i32 noundef 124, ptr noundef @__PRETTY_FUNCTION__._ZN6open3d13visualization21VisualizerWithEditing19PrintVisualizerHelpEv, ptr noundef @.str.79)
  call void @_ZN6open3d7utility6Logger8LogInfo_IJEEEvPKciS4_S4_DpOT_(ptr noundef @.str, i32 noundef 125, ptr noundef @__PRETTY_FUNCTION__._ZN6open3d13visualization21VisualizerWithEditing19PrintVisualizerHelpEv, ptr noundef @.str.80)
  call void @_ZN6open3d7utility6Logger8LogInfo_IJEEEvPKciS4_S4_DpOT_(ptr noundef @.str, i32 noundef 126, ptr noundef @__PRETTY_FUNCTION__._ZN6open3d13visualization21VisualizerWithEditing19PrintVisualizerHelpEv, ptr noundef @.str.81)
  call void @_ZN6open3d7utility6Logger8LogInfo_IJEEEvPKciS4_S4_DpOT_(ptr noundef @.str, i32 noundef 127, ptr noundef @__PRETTY_FUNCTION__._ZN6open3d13visualization21VisualizerWithEditing19PrintVisualizerHelpEv, ptr noundef @.str.82)
  call void @_ZN6open3d7utility6Logger8LogInfo_IJEEEvPKciS4_S4_DpOT_(ptr noundef @.str, i32 noundef 128, ptr noundef @__PRETTY_FUNCTION__._ZN6open3d13visualization21VisualizerWithEditing19PrintVisualizerHelpEv, ptr noundef @.str.83)
  call void @_ZN6open3d7utility6Logger8LogInfo_IJEEEvPKciS4_S4_DpOT_(ptr noundef @.str, i32 noundef 129, ptr noundef @__PRETTY_FUNCTION__._ZN6open3d13visualization21VisualizerWithEditing19PrintVisualizerHelpEv, ptr noundef @.str.40)
  ret void
}