; Function Attrs: mustprogress ssp uwtable
define void @_ZN6open3d13visualization21VisualizerWithEditing19PrintVisualizerHelpEv(ptr noundef nonnull align 8 dereferenceable(628) %0) unnamed_addr #1 align 2 {
  tail call void @_ZN6open3d13visualization10Visualizer19PrintVisualizerHelpEv(ptr noundef nonnull align 8 dereferenceable(456) %0)
  tail call void @_ZN6open3d7utility6Logger8LogInfo_IJEEEvPKciS4_S4_DpOT_(ptr noundef nonnull @.str, i32 noundef 110, ptr noundef nonnull @__PRETTY_FUNCTION__._ZN6open3d13visualization21VisualizerWithEditing19PrintVisualizerHelpEv, ptr noundef nonnull @.str.66)
  tail call void @_ZN6open3d7utility6Logger8LogInfo_IJEEEvPKciS4_S4_DpOT_(ptr noundef nonnull @.str, i32 noundef 111, ptr noundef nonnull @__PRETTY_FUNCTION__._ZN6open3d13visualization21VisualizerWithEditing19PrintVisualizerHelpEv, ptr noundef nonnull @.str.67)
  tail call void @_ZN6open3d7utility6Logger8LogInfo_IJEEEvPKciS4_S4_DpOT_(ptr noundef nonnull @.str, i32 noundef 112, ptr noundef nonnull @__PRETTY_FUNCTION__._ZN6open3d13visualization21VisualizerWithEditing19PrintVisualizerHelpEv, ptr noundef nonnull @.str.68)
  tail call void @_ZN6open3d7utility6Logger8LogInfo_IJEEEvPKciS4_S4_DpOT_(ptr noundef nonnull @.str, i32 noundef 113, ptr noundef nonnull @__PRETTY_FUNCTION__._ZN6open3d13visualization21VisualizerWithEditing19PrintVisualizerHelpEv, ptr noundef nonnull @.str.69)
  tail call void @_ZN6open3d7utility6Logger8LogInfo_IJEEEvPKciS4_S4_DpOT_(ptr noundef nonnull @.str, i32 noundef 114, ptr noundef nonnull @__PRETTY_FUNCTION__._ZN6open3d13visualization21VisualizerWithEditing19PrintVisualizerHelpEv, ptr noundef nonnull @.str.70)
  tail call void @_ZN6open3d7utility6Logger8LogInfo_IJEEEvPKciS4_S4_DpOT_(ptr noundef nonnull @.str, i32 noundef 115, ptr noundef nonnull @__PRETTY_FUNCTION__._ZN6open3d13visualization21VisualizerWithEditing19PrintVisualizerHelpEv, ptr noundef nonnull @.str.71)
  tail call void @_ZN6open3d7utility6Logger8LogInfo_IJEEEvPKciS4_S4_DpOT_(ptr noundef nonnull @.str, i32 noundef 116, ptr noundef nonnull @__PRETTY_FUNCTION__._ZN6open3d13visualization21VisualizerWithEditing19PrintVisualizerHelpEv, ptr noundef nonnull @.str.72)
  tail call void @_ZN6open3d7utility6Logger8LogInfo_IJEEEvPKciS4_S4_DpOT_(ptr noundef nonnull @.str, i32 noundef 117, ptr noundef nonnull @__PRETTY_FUNCTION__._ZN6open3d13visualization21VisualizerWithEditing19PrintVisualizerHelpEv, ptr noundef nonnull @.str.73)
  tail call void @_ZN6open3d7utility6Logger8LogInfo_IJEEEvPKciS4_S4_DpOT_(ptr noundef nonnull @.str, i32 noundef 118, ptr noundef nonnull @__PRETTY_FUNCTION__._ZN6open3d13visualization21VisualizerWithEditing19PrintVisualizerHelpEv, ptr noundef nonnull @.str.74)
  tail call void @_ZN6open3d7utility6Logger8LogInfo_IJEEEvPKciS4_S4_DpOT_(ptr noundef nonnull @.str, i32 noundef 119, ptr noundef nonnull @__PRETTY_FUNCTION__._ZN6open3d13visualization21VisualizerWithEditing19PrintVisualizerHelpEv, ptr noundef nonnull @.str.75)
  tail call void @_ZN6open3d7utility6Logger8LogInfo_IJEEEvPKciS4_S4_DpOT_(ptr noundef nonnull @.str, i32 noundef 120, ptr noundef nonnull @__PRETTY_FUNCTION__._ZN6open3d13visualization21VisualizerWithEditing19PrintVisualizerHelpEv, ptr noundef nonnull @.str.76)
  tail call void @_ZN6open3d7utility6Logger8LogInfo_IJEEEvPKciS4_S4_DpOT_(ptr noundef nonnull @.str, i32 noundef 121, ptr noundef nonnull @__PRETTY_FUNCTION__._ZN6open3d13visualization21VisualizerWithEditing19PrintVisualizerHelpEv, ptr noundef nonnull @.str.40)
  tail call void @_ZN6open3d7utility6Logger8LogInfo_IJEEEvPKciS4_S4_DpOT_(ptr noundef nonnull @.str, i32 noundef 122, ptr noundef nonnull @__PRETTY_FUNCTION__._ZN6open3d13visualization21VisualizerWithEditing19PrintVisualizerHelpEv, ptr noundef nonnull @.str.77)
  tail call void @_ZN6open3d7utility6Logger8LogInfo_IJEEEvPKciS4_S4_DpOT_(ptr noundef nonnull @.str, i32 noundef 123, ptr noundef nonnull @__PRETTY_FUNCTION__._ZN6open3d13visualization21VisualizerWithEditing19PrintVisualizerHelpEv, ptr noundef nonnull @.str.78)
  tail call void @_ZN6open3d7utility6Logger8LogInfo_IJEEEvPKciS4_S4_DpOT_(ptr noundef nonnull @.str, i32 noundef 124, ptr noundef nonnull @__PRETTY_FUNCTION__._ZN6open3d13visualization21VisualizerWithEditing19PrintVisualizerHelpEv, ptr noundef nonnull @.str.79)
  tail call void @_ZN6open3d7utility6Logger8LogInfo_IJEEEvPKciS4_S4_DpOT_(ptr noundef nonnull @.str, i32 noundef 125, ptr noundef nonnull @__PRETTY_FUNCTION__._ZN6open3d13visualization21VisualizerWithEditing19PrintVisualizerHelpEv, ptr noundef nonnull @.str.80)
  tail call void @_ZN6open3d7utility6Logger8LogInfo_IJEEEvPKciS4_S4_DpOT_(ptr noundef nonnull @.str, i32 noundef 126, ptr noundef nonnull @__PRETTY_FUNCTION__._ZN6open3d13visualization21VisualizerWithEditing19PrintVisualizerHelpEv, ptr noundef nonnull @.str.81)
  tail call void @_ZN6open3d7utility6Logger8LogInfo_IJEEEvPKciS4_S4_DpOT_(ptr noundef nonnull @.str, i32 noundef 127, ptr noundef nonnull @__PRETTY_FUNCTION__._ZN6open3d13visualization21VisualizerWithEditing19PrintVisualizerHelpEv, ptr noundef nonnull @.str.82)
  tail call void @_ZN6open3d7utility6Logger8LogInfo_IJEEEvPKciS4_S4_DpOT_(ptr noundef nonnull @.str, i32 noundef 128, ptr noundef nonnull @__PRETTY_FUNCTION__._ZN6open3d13visualization21VisualizerWithEditing19PrintVisualizerHelpEv, ptr noundef nonnull @.str.83)
  tail call void @_ZN6open3d7utility6Logger8LogInfo_IJEEEvPKciS4_S4_DpOT_(ptr noundef nonnull @.str, i32 noundef 129, ptr noundef nonnull @__PRETTY_FUNCTION__._ZN6open3d13visualization21VisualizerWithEditing19PrintVisualizerHelpEv, ptr noundef nonnull @.str.40)
  ret void
}